target datalayout = "e-m:e-p270:32:32-p271:32:32-p272:64:64-i64:64-i128:128-f80:128-n8:16:32:64-S128"
target triple = "x86_64-pc-linux-gnu"

%struct.DAUDIO_Info = type { ptr, i32, i32, i32, i32, i32, i32, ptr, i32 }

; Function Attrs: nounwind uwtable
define void @Java_com_sun_media_sound_DirectAudioDevice_nSetBytePosition(ptr noundef %0, ptr noundef %1, i64 noundef %2, i8 noundef zeroext %3, i64 noundef %4) #0 {
  %6 = alloca ptr, align 8
  %7 = alloca ptr, align 8
  %8 = alloca i64, align 8
  %9 = alloca i8, align 1
  %10 = alloca i64, align 8
  %11 = alloca ptr, align 8
  store ptr %0, ptr %6, align 8
  store ptr %1, ptr %7, align 8
  store i64 %2, ptr %8, align 8
  store i8 %3, ptr %9, align 1
  store i64 %4, ptr %10, align 8
  %12 = load i64, ptr %8, align 8
  %13 = inttoptr i64 %12 to ptr
  store ptr %13, ptr %11, align 8
  %14 = load ptr, ptr %11, align 8
  %15 = icmp ne ptr %14, null
  br i1 %15, label %16, label %28

16:                                               ; preds = %5
  %17 = load ptr, ptr %11, align 8
  %18 = getelementptr inbounds %struct.DAUDIO_Info, ptr %17, i32 0, i32 0
  %19 = load ptr, ptr %18, align 8
  %20 = icmp ne ptr %19, null
  br i1 %20, label %21, label %28

21:                                               ; preds = %16
  %22 = load ptr, ptr %11, align 8
  %23 = getelementptr inbounds %struct.DAUDIO_Info, ptr %22, i32 0, i32 0
  %24 = load ptr, ptr %23, align 8
  %25 = load i8, ptr %9, align 1
  %26 = zext i8 %25 to i32
  %27 = load i64, ptr %10, align 8
  call void @DAUDIO_SetBytePosition(ptr noundef %24, i32 noundef %26, i64 noundef %27)
  br label %28

28:                                               ; preds = %21, %16, %5
  ret void
}