; Function Attrs: nounwind uwtable
define void @Java_com_sun_media_sound_DirectAudioDevice_nSetBytePosition(ptr nocapture noundef readnone %0, ptr nocapture noundef readnone %1, i64 noundef %2, i8 noundef zeroext %3, i64 noundef %4) local_unnamed_addr #2 {
  %.not = icmp eq i64 %2, 0
  br i1 %.not, label %11, label %6

6:                                                ; preds = %5
  %7 = inttoptr i64 %2 to ptr
  %8 = load ptr, ptr %7, align 8
  %.not6 = icmp eq ptr %8, null
  br i1 %.not6, label %11, label %9

9:                                                ; preds = %6
  %10 = zext i8 %3 to i32
  tail call void @DAUDIO_SetBytePosition(ptr noundef nonnull %8, i32 noundef %10, i64 noundef %4) #7
  br label %11

11:                                               ; preds = %9, %6, %5
  ret void
}